; Function Attrs: mustprogress uwtable
define noundef i32 @_ZN2cv3dnn14dnn4_v202412233Net8addLayerERKNSt7__cxx1112basic_stringIcSt11char_traitsIcESaIcEEESA_RKiRNS1_11LayerParamsE(ptr noundef nonnull readonly align 8 captures(none) dereferenceable(16) %0, ptr noundef nonnull align 8 dereferenceable(32) %1, ptr noundef nonnull align 8 dereferenceable(32) %2, ptr noundef nonnull align 4 dereferenceable(4) %3, ptr noundef nonnull align 8 dereferenceable(136) %4) local_unnamed_addr #3 align 2 personality ptr @__gxx_personality_v0 {
  %6 = alloca %"class.cv::utils::trace::details::Region", align 8
  %7 = alloca %"class.std::__cxx11::basic_string", align 8
  %8 = alloca %"class.std::allocator", align 1
  call void @llvm.lifetime.start.p0(i64 16, ptr nonnull %6) #21
  call void @_ZN2cv5utils5trace7details6RegionC1ERKNS3_21LocationStaticStorageE(ptr noundef nonnull align 8 dereferenceable(12) %6, ptr noundef nonnull align 8 dereferenceable(32) @_ZZN2cv3dnn14dnn4_v202412233Net8addLayerERKNSt7__cxx1112basic_stringIcSt11char_traitsIcESaIcEEESA_RKiRNS1_11LayerParamsEE24__cv_trace_location_fn25)
  %9 = load ptr, ptr %0, align 8, !tbaa !17
  %.not = icmp eq ptr %9, null
  br i1 %.not, label %10, label %23

10:                                               ; preds = %5
  call void @llvm.lifetime.start.p0(i64 32, ptr nonnull %7) #21
  call void @llvm.lifetime.start.p0(i64 1, ptr nonnull %8) #21
  invoke void @_ZNSt7__cxx1112basic_stringIcSt11char_traitsIcESaIcEEC2EPKcRKS3_(ptr noundef nonnull align 8 dereferenceable(32) %7, ptr noundef nonnull @.str.2, ptr noundef nonnull align 1 dereferenceable(1) %8)
          to label %11 unwind label %13

11:                                               ; preds = %10
  invoke void @_ZN2cv5errorEiRKNSt7__cxx1112basic_stringIcSt11char_traitsIcESaIcEEEPKcS9_i(i32 noundef -215, ptr noundef nonnull align 8 dereferenceable(32) %7, ptr noundef nonnull @__func__._ZN2cv3dnn14dnn4_v202412233Net8addLayerERKNSt7__cxx1112basic_stringIcSt11char_traitsIcESaIcEEESA_RKiRNS1_11LayerParamsE, ptr noundef nonnull @.str.1, i32 noundef 26) #22
          to label %12 unwind label %15

12:                                               ; preds = %11
  unreachable

13:                                               ; preds = %10
  %14 = landingpad { ptr, i32 }
          cleanup
  br label %_ZNSt7__cxx1112basic_stringIcSt11char_traitsIcESaIcEED2Ev.exit

15:                                               ; preds = %11
  %16 = landingpad { ptr, i32 }
          cleanup
  %17 = load ptr, ptr %7, align 8, !tbaa !27
  %18 = getelementptr inbounds nuw i8, ptr %7, i64 16
  %19 = icmp eq ptr %17, %18
  br i1 %19, label %_ZNKSt7__cxx1112basic_stringIcSt11char_traitsIcESaIcEE11_M_is_localEv.exit.thread.i.i, label %_ZNKSt7__cxx1112basic_stringIcSt11char_traitsIcESaIcEE11_M_is_localEv.exit.i.i

_ZNKSt7__cxx1112basic_stringIcSt11char_traitsIcESaIcEE11_M_is_localEv.exit.thread.i.i: ; preds = %15
  %20 = getelementptr inbounds nuw i8, ptr %7, i64 8
  %21 = load i64, ptr %20, align 8, !tbaa !32
  %22 = icmp ult i64 %21, 16
  call void @llvm.assume(i1 %22)
  br label %_ZNSt7__cxx1112basic_stringIcSt11char_traitsIcESaIcEED2Ev.exit

_ZNKSt7__cxx1112basic_stringIcSt11char_traitsIcESaIcEE11_M_is_localEv.exit.i.i: ; preds = %15
  call void @_ZdlPv(ptr noundef %17) #20
  br label %_ZNSt7__cxx1112basic_stringIcSt11char_traitsIcESaIcEED2Ev.exit

_ZNSt7__cxx1112basic_stringIcSt11char_traitsIcESaIcEED2Ev.exit: ; preds = %_ZNKSt7__cxx1112basic_stringIcSt11char_traitsIcESaIcEE11_M_is_localEv.exit.i.i, %_ZNKSt7__cxx1112basic_stringIcSt11char_traitsIcESaIcEE11_M_is_localEv.exit.thread.i.i, %13
  %.pn = phi { ptr, i32 } [ %14, %13 ], [ %16, %_ZNKSt7__cxx1112basic_stringIcSt11char_traitsIcESaIcEE11_M_is_localEv.exit.thread.i.i ], [ %16, %_ZNKSt7__cxx1112basic_stringIcSt11char_traitsIcESaIcEE11_M_is_localEv.exit.i.i ]
  call void @llvm.lifetime.end.p0(i64 1, ptr nonnull %8) #21
  call void @llvm.lifetime.end.p0(i64 32, ptr nonnull %7) #21
  br label %34

23:                                               ; preds = %5
  %24 = invoke noundef i32 @_ZN2cv3dnn14dnn4_v202412233Net4Impl8addLayerERKNSt7__cxx1112basic_stringIcSt11char_traitsIcESaIcEEESB_RKiRNS1_11LayerParamsE(ptr noundef nonnull align 8 dereferenceable(504) %9, ptr noundef nonnull align 8 dereferenceable(32) %1, ptr noundef nonnull align 8 dereferenceable(32) %2, ptr noundef nonnull align 4 dereferenceable(4) %3, ptr noundef nonnull align 8 dereferenceable(136) %4)
          to label %25 unwind label %32

25:                                               ; preds = %23
  %26 = getelementptr inbounds nuw i8, ptr %6, i64 8
  %27 = load i32, ptr %26, align 8, !tbaa !33
  %.not.i = icmp eq i32 %27, 0
  br i1 %.not.i, label %_ZN2cv5utils5trace7details6RegionD2Ev.exit, label %28

28:                                               ; preds = %25
  invoke void @_ZN2cv5utils5trace7details6Region7destroyEv(ptr noundef nonnull align 8 dereferenceable(12) %6)
          to label %_ZN2cv5utils5trace7details6RegionD2Ev.exit unwind label %29

29:                                               ; preds = %28
  %30 = landingpad { ptr, i32 }
          catch ptr null
  %31 = extractvalue { ptr, i32 } %30, 0
  call void @__clang_call_terminate(ptr %31) #23
  unreachable

_ZN2cv5utils5trace7details6RegionD2Ev.exit:       ; preds = %25, %28
  call void @llvm.lifetime.end.p0(i64 16, ptr nonnull %6) #21
  ret i32 %24

32:                                               ; preds = %23
  %33 = landingpad { ptr, i32 }
          cleanup
  br label %34

34:                                               ; preds = %32, %_ZNSt7__cxx1112basic_stringIcSt11char_traitsIcESaIcEED2Ev.exit
  %.pn9 = phi { ptr, i32 } [ %33, %32 ], [ %.pn, %_ZNSt7__cxx1112basic_stringIcSt11char_traitsIcESaIcEED2Ev.exit ]
  call void @_ZN2cv5utils5trace7details6RegionD2Ev(ptr noundef nonnull align 8 dereferenceable(12) %6) #21
  call void @llvm.lifetime.end.p0(i64 16, ptr nonnull %6) #21
  resume { ptr, i32 } %.pn9
}